target datalayout = "e-m:e-p270:32:32-p271:32:32-p272:64:64-i64:64-i128:128-f80:128-n8:16:32:64-S128"
target triple = "x86_64-pc-linux-gnu"

%class.anon.152 = type { ptr, ptr, ptr, ptr }

; Function Attrs: inlinehint mustprogress ssp uwtable
define linkonce_odr hidden noundef ptr @_ZN6open3d4core6Tensor10GetDataPtrImEEPT_v(ptr noundef nonnull align 8 dereferenceable(160) %0) #16 comdat align 2 {
  %2 = alloca ptr, align 8
  store ptr %0, ptr %2, align 8, !tbaa !148
  %3 = load ptr, ptr %2, align 8
  %4 = call noundef ptr @_ZNK6open3d4core6Tensor10GetDataPtrImEEPKT_v(ptr noundef nonnull align 8 dereferenceable(160) %3)
  ret ptr %4
}

; Function Attrs: inlinehint mustprogress ssp uwtable
define internal void @"_ZZZN6open3d1t8geometry6kernel12trianglemesh23ComputeVertexNormalsCPUERKNS_4core6TensorES7_RS5_ENK3$_0clEvENKUlvE8_clEv"(ptr noundef nonnull align 8 dereferenceable(32) %0) #16 align 2 {
  %2 = alloca ptr, align 8
  %3 = alloca ptr, align 8
  %4 = alloca ptr, align 8
  %5 = alloca ptr, align 8
  %6 = alloca i64, align 8
  %7 = alloca i64, align 8
  %8 = alloca i64, align 8
  %9 = alloca i64, align 8
  %10 = alloca i64, align 8
  %11 = alloca i64, align 8
  %12 = alloca i64, align 8
  %13 = alloca i64, align 8
  store ptr %0, ptr %2, align 8, !tbaa !86
  %14 = load ptr, ptr %2, align 8
  call void @llvm.lifetime.start.p0(i64 8, ptr %3) #7
  %15 = getelementptr inbounds nuw %class.anon.152, ptr %14, i32 0, i32 0
  %16 = load ptr, ptr %15, align 8, !tbaa !1020
  %17 = call noundef ptr @_ZNK6open3d4core6Tensor10GetDataPtrIlEEPKT_v(ptr noundef nonnull align 8 dereferenceable(160) %16)
  store ptr %17, ptr %3, align 8, !tbaa !126
  call void @llvm.lifetime.start.p0(i64 8, ptr %4) #7
  %18 = getelementptr inbounds nuw %class.anon.152, ptr %14, i32 0, i32 1
  %19 = load ptr, ptr %18, align 8, !tbaa !1022
  %20 = call noundef ptr @_ZNK6open3d4core6Tensor10GetDataPtrImEEPKT_v(ptr noundef nonnull align 8 dereferenceable(160) %19)
  store ptr %20, ptr %4, align 8, !tbaa !126
  call void @llvm.lifetime.start.p0(i64 8, ptr %5) #7
  %21 = getelementptr inbounds nuw %class.anon.152, ptr %14, i32 0, i32 2
  %22 = load ptr, ptr %21, align 8, !tbaa !1023
  %23 = call noundef ptr @_ZN6open3d4core6Tensor10GetDataPtrImEEPT_v(ptr noundef nonnull align 8 dereferenceable(160) %22)
  store ptr %23, ptr %5, align 8, !tbaa !126
  call void @llvm.lifetime.start.p0(i64 8, ptr %6) #7
  store i64 0, ptr %6, align 8, !tbaa !30
  br label %24

24:                                               ; preds = %131, %1
  %25 = load i64, ptr %6, align 8, !tbaa !30
  %26 = getelementptr inbounds nuw %class.anon.152, ptr %14, i32 0, i32 3
  %27 = load ptr, ptr %26, align 8, !tbaa !1024
  %28 = load i64, ptr %27, align 8, !tbaa !30
  %29 = icmp slt i64 %25, %28
  br i1 %29, label %31, label %30

30:                                               ; preds = %24
  call void @llvm.lifetime.end.p0(i64 8, ptr %6) #7
  br label %134

31:                                               ; preds = %24
  call void @llvm.lifetime.start.p0(i64 8, ptr %7) #7
  %32 = load i64, ptr %6, align 8, !tbaa !30
  %33 = mul nsw i64 3, %32
  store i64 %33, ptr %7, align 8, !tbaa !30
  call void @llvm.lifetime.start.p0(i64 8, ptr %8) #7
  %34 = load ptr, ptr %3, align 8, !tbaa !126
  %35 = load i64, ptr %7, align 8, !tbaa !30
  %36 = getelementptr inbounds i64, ptr %34, i64 %35
  %37 = load i64, ptr %36, align 8, !tbaa !30
  store i64 %37, ptr %8, align 8, !tbaa !30
  call void @llvm.lifetime.start.p0(i64 8, ptr %9) #7
  %38 = load ptr, ptr %3, align 8, !tbaa !126
  %39 = load i64, ptr %7, align 8, !tbaa !30
  %40 = add nsw i64 %39, 1
  %41 = getelementptr inbounds i64, ptr %38, i64 %40
  %42 = load i64, ptr %41, align 8, !tbaa !30
  store i64 %42, ptr %9, align 8, !tbaa !30
  call void @llvm.lifetime.start.p0(i64 8, ptr %10) #7
  %43 = load ptr, ptr %3, align 8, !tbaa !126
  %44 = load i64, ptr %7, align 8, !tbaa !30
  %45 = add nsw i64 %44, 2
  %46 = getelementptr inbounds i64, ptr %43, i64 %45
  %47 = load i64, ptr %46, align 8, !tbaa !30
  store i64 %47, ptr %10, align 8, !tbaa !30
  call void @llvm.lifetime.start.p0(i64 8, ptr %11) #7
  %48 = load ptr, ptr %4, align 8, !tbaa !126
  %49 = load i64, ptr %7, align 8, !tbaa !30
  %50 = getelementptr inbounds i64, ptr %48, i64 %49
  %51 = load i64, ptr %50, align 8, !tbaa !30
  store i64 %51, ptr %11, align 8, !tbaa !30
  call void @llvm.lifetime.start.p0(i64 8, ptr %12) #7
  %52 = load ptr, ptr %4, align 8, !tbaa !126
  %53 = load i64, ptr %7, align 8, !tbaa !30
  %54 = add nsw i64 %53, 1
  %55 = getelementptr inbounds i64, ptr %52, i64 %54
  %56 = load i64, ptr %55, align 8, !tbaa !30
  store i64 %56, ptr %12, align 8, !tbaa !30
  call void @llvm.lifetime.start.p0(i64 8, ptr %13) #7
  %57 = load ptr, ptr %4, align 8, !tbaa !126
  %58 = load i64, ptr %7, align 8, !tbaa !30
  %59 = add nsw i64 %58, 2
  %60 = getelementptr inbounds i64, ptr %57, i64 %59
  %61 = load i64, ptr %60, align 8, !tbaa !30
  store i64 %61, ptr %13, align 8, !tbaa !30
  %62 = load i64, ptr %11, align 8, !tbaa !30
  %63 = load ptr, ptr %5, align 8, !tbaa !126
  %64 = load i64, ptr %8, align 8, !tbaa !30
  %65 = mul nsw i64 3, %64
  %66 = getelementptr inbounds i64, ptr %63, i64 %65
  %67 = load i64, ptr %66, align 8, !tbaa !30
  %68 = add i64 %67, %62
  store i64 %68, ptr %66, align 8, !tbaa !30
  %69 = load i64, ptr %12, align 8, !tbaa !30
  %70 = load ptr, ptr %5, align 8, !tbaa !126
  %71 = load i64, ptr %8, align 8, !tbaa !30
  %72 = mul nsw i64 3, %71
  %73 = add nsw i64 %72, 1
  %74 = getelementptr inbounds i64, ptr %70, i64 %73
  %75 = load i64, ptr %74, align 8, !tbaa !30
  %76 = add i64 %75, %69
  store i64 %76, ptr %74, align 8, !tbaa !30
  %77 = load i64, ptr %13, align 8, !tbaa !30
  %78 = load ptr, ptr %5, align 8, !tbaa !126
  %79 = load i64, ptr %8, align 8, !tbaa !30
  %80 = mul nsw i64 3, %79
  %81 = add nsw i64 %80, 2
  %82 = getelementptr inbounds i64, ptr %78, i64 %81
  %83 = load i64, ptr %82, align 8, !tbaa !30
  %84 = add i64 %83, %77
  store i64 %84, ptr %82, align 8, !tbaa !30
  %85 = load i64, ptr %11, align 8, !tbaa !30
  %86 = load ptr, ptr %5, align 8, !tbaa !126
  %87 = load i64, ptr %9, align 8, !tbaa !30
  %88 = mul nsw i64 3, %87
  %89 = getelementptr inbounds i64, ptr %86, i64 %88
  %90 = load i64, ptr %89, align 8, !tbaa !30
  %91 = add i64 %90, %85
  store i64 %91, ptr %89, align 8, !tbaa !30
  %92 = load i64, ptr %12, align 8, !tbaa !30
  %93 = load ptr, ptr %5, align 8, !tbaa !126
  %94 = load i64, ptr %9, align 8, !tbaa !30
  %95 = mul nsw i64 3, %94
  %96 = add nsw i64 %95, 1
  %97 = getelementptr inbounds i64, ptr %93, i64 %96
  %98 = load i64, ptr %97, align 8, !tbaa !30
  %99 = add i64 %98, %92
  store i64 %99, ptr %97, align 8, !tbaa !30
  %100 = load i64, ptr %13, align 8, !tbaa !30
  %101 = load ptr, ptr %5, align 8, !tbaa !126
  %102 = load i64, ptr %9, align 8, !tbaa !30
  %103 = mul nsw i64 3, %102
  %104 = add nsw i64 %103, 2
  %105 = getelementptr inbounds i64, ptr %101, i64 %104
  %106 = load i64, ptr %105, align 8, !tbaa !30
  %107 = add i64 %106, %100
  store i64 %107, ptr %105, align 8, !tbaa !30
  %108 = load i64, ptr %11, align 8, !tbaa !30
  %109 = load ptr, ptr %5, align 8, !tbaa !126
  %110 = load i64, ptr %10, align 8, !tbaa !30
  %111 = mul nsw i64 3, %110
  %112 = getelementptr inbounds i64, ptr %109, i64 %111
  %113 = load i64, ptr %112, align 8, !tbaa !30
  %114 = add i64 %113, %108
  store i64 %114, ptr %112, align 8, !tbaa !30
  %115 = load i64, ptr %12, align 8, !tbaa !30
  %116 = load ptr, ptr %5, align 8, !tbaa !126
  %117 = load i64, ptr %10, align 8, !tbaa !30
  %118 = mul nsw i64 3, %117
  %119 = add nsw i64 %118, 1
  %120 = getelementptr inbounds i64, ptr %116, i64 %119
  %121 = load i64, ptr %120, align 8, !tbaa !30
  %122 = add i64 %121, %115
  store i64 %122, ptr %120, align 8, !tbaa !30
  %123 = load i64, ptr %13, align 8, !tbaa !30
  %124 = load ptr, ptr %5, align 8, !tbaa !126
  %125 = load i64, ptr %10, align 8, !tbaa !30
  %126 = mul nsw i64 3, %125
  %127 = add nsw i64 %126, 2
  %128 = getelementptr inbounds i64, ptr %124, i64 %127
  %129 = load i64, ptr %128, align 8, !tbaa !30
  %130 = add i64 %129, %123
  store i64 %130, ptr %128, align 8, !tbaa !30
  call void @llvm.lifetime.end.p0(i64 8, ptr %13) #7
  call void @llvm.lifetime.end.p0(i64 8, ptr %12) #7
  call void @llvm.lifetime.end.p0(i64 8, ptr %11) #7
  call void @llvm.lifetime.end.p0(i64 8, ptr %10) #7
  call void @llvm.lifetime.end.p0(i64 8, ptr %9) #7
  call void @llvm.lifetime.end.p0(i64 8, ptr %8) #7
  call void @llvm.lifetime.end.p0(i64 8, ptr %7) #7
  br label %131

131:                                              ; preds = %31
  %132 = load i64, ptr %6, align 8, !tbaa !30
  %133 = add nsw i64 %132, 1
  store i64 %133, ptr %6, align 8, !tbaa !30
  br label %24, !llvm.loop !1025

134:                                              ; preds = %30
  call void @llvm.lifetime.end.p0(i64 8, ptr %5) #7
  call void @llvm.lifetime.end.p0(i64 8, ptr %4) #7
  call void @llvm.lifetime.end.p0(i64 8, ptr %3) #7
  ret void
}