; Function Attrs: inlinehint mustprogress ssp uwtable
define internal fastcc void @"_ZZZN6open3d1t8geometry6kernel12trianglemesh23ComputeVertexNormalsCPUERKNS_4core6TensorES7_RS5_ENK3$_0clEvENKUlvE8_clEv"(ptr noundef nonnull readonly align 8 captures(none) dereferenceable(32) %0) unnamed_addr #15 align 2 {
  %2 = load ptr, ptr %0, align 8, !tbaa !716
  %3 = tail call noundef ptr @_ZNK6open3d4core6Tensor10GetDataPtrIlEEPKT_v(ptr noundef nonnull align 8 dereferenceable(160) %2)
  %4 = getelementptr inbounds nuw i8, ptr %0, i64 8
  %5 = load ptr, ptr %4, align 8, !tbaa !718
  %6 = tail call noundef ptr @_ZNK6open3d4core6Tensor10GetDataPtrImEEPKT_v(ptr noundef nonnull align 8 dereferenceable(160) %5)
  %7 = getelementptr inbounds nuw i8, ptr %0, i64 16
  %8 = load ptr, ptr %7, align 8, !tbaa !719
  %9 = tail call noundef ptr @_ZNK6open3d4core6Tensor10GetDataPtrImEEPKT_v(ptr noundef nonnull align 8 dereferenceable(160) %8)
  %10 = getelementptr inbounds nuw i8, ptr %0, i64 24
  %11 = load ptr, ptr %10, align 8, !tbaa !720
  %12 = load i64, ptr %11, align 8, !tbaa !41
  %13 = icmp sgt i64 %12, 0
  br i1 %13, label %.lr.ph, label %._crit_edge

._crit_edge:                                      ; preds = %.lr.ph, %1
  ret void

.lr.ph:                                           ; preds = %1, %.lr.ph
  %.044 = phi i64 [ %56, %.lr.ph ], [ 0, %1 ]
  %14 = mul nuw nsw i64 %.044, 3
  %15 = getelementptr inbounds nuw i64, ptr %3, i64 %14
  %16 = load i64, ptr %15, align 8, !tbaa !41
  %17 = add nuw nsw i64 %14, 1
  %18 = getelementptr inbounds nuw i64, ptr %3, i64 %17
  %19 = load i64, ptr %18, align 8, !tbaa !41
  %20 = add nuw nsw i64 %14, 2
  %21 = getelementptr inbounds nuw i64, ptr %3, i64 %20
  %22 = load i64, ptr %21, align 8, !tbaa !41
  %23 = getelementptr inbounds nuw i64, ptr %6, i64 %14
  %24 = load i64, ptr %23, align 8, !tbaa !41
  %25 = getelementptr inbounds nuw i64, ptr %6, i64 %17
  %26 = load i64, ptr %25, align 8, !tbaa !41
  %27 = getelementptr inbounds nuw i64, ptr %6, i64 %20
  %28 = load i64, ptr %27, align 8, !tbaa !41
  %.idx = mul nsw i64 %16, 24
  %29 = getelementptr inbounds i8, ptr %9, i64 %.idx
  %30 = load i64, ptr %29, align 8, !tbaa !41
  %31 = add i64 %30, %24
  store i64 %31, ptr %29, align 8, !tbaa !41
  %32 = getelementptr i8, ptr %29, i64 8
  %33 = load i64, ptr %32, align 8, !tbaa !41
  %34 = add i64 %33, %26
  store i64 %34, ptr %32, align 8, !tbaa !41
  %35 = getelementptr i8, ptr %29, i64 16
  %36 = load i64, ptr %35, align 8, !tbaa !41
  %37 = add i64 %36, %28
  store i64 %37, ptr %35, align 8, !tbaa !41
  %.idx42 = mul nsw i64 %19, 24
  %38 = getelementptr inbounds i8, ptr %9, i64 %.idx42
  %39 = load i64, ptr %38, align 8, !tbaa !41
  %40 = add i64 %39, %24
  store i64 %40, ptr %38, align 8, !tbaa !41
  %41 = getelementptr i8, ptr %38, i64 8
  %42 = load i64, ptr %41, align 8, !tbaa !41
  %43 = add i64 %42, %26
  store i64 %43, ptr %41, align 8, !tbaa !41
  %44 = getelementptr i8, ptr %38, i64 16
  %45 = load i64, ptr %44, align 8, !tbaa !41
  %46 = add i64 %45, %28
  store i64 %46, ptr %44, align 8, !tbaa !41
  %.idx43 = mul nsw i64 %22, 24
  %47 = getelementptr inbounds i8, ptr %9, i64 %.idx43
  %48 = load i64, ptr %47, align 8, !tbaa !41
  %49 = add i64 %48, %24
  store i64 %49, ptr %47, align 8, !tbaa !41
  %50 = getelementptr i8, ptr %47, i64 8
  %51 = load i64, ptr %50, align 8, !tbaa !41
  %52 = add i64 %51, %26
  store i64 %52, ptr %50, align 8, !tbaa !41
  %53 = getelementptr i8, ptr %47, i64 16
  %54 = load i64, ptr %53, align 8, !tbaa !41
  %55 = add i64 %54, %28
  store i64 %55, ptr %53, align 8, !tbaa !41
  %56 = add nuw nsw i64 %.044, 1
  %57 = load i64, ptr %11, align 8, !tbaa !41
  %58 = icmp slt i64 %56, %57
  br i1 %58, label %.lr.ph, label %._crit_edge, !llvm.loop !721
}